target datalayout = "e-m:e-p270:32:32-p271:32:32-p272:64:64-i64:64-i128:128-f80:128-n8:16:32:64-S128"
target triple = "x86_64-pc-linux-gnu"

@hf_gryphon_bit_out_digital_data = internal global i32 0, align 4
@ett_gryphon_digital_data = internal global i32 0, align 4
@.str.1086 = private unnamed_addr constant [26 x i8] c"No digital values are set\00", align 1
@cmd_bits_out.digital_values = internal constant [3 x ptr] [ptr @hf_gryphon_bits_out_output1, ptr @hf_gryphon_bits_out_output2, ptr null], align 16

; Function Attrs: null_pointer_is_valid sspstrong uwtable
define internal i32 @cmd_bits_out(ptr noundef %0, i32 noundef %1, ptr noundef %2) #0 {
  %4 = alloca ptr, align 8
  %5 = alloca i32, align 4
  %6 = alloca ptr, align 8
  %7 = alloca i32, align 4
  store ptr %0, ptr %4, align 8
  store i32 %1, ptr %5, align 4
  store ptr %2, ptr %6, align 8
  call void @llvm.lifetime.start.p0(i64 4, ptr %7) #7
  %8 = load ptr, ptr %4, align 8
  %9 = load i32, ptr %5, align 4
  %10 = call zeroext i8 @tvb_get_uint8(ptr noundef %8, i32 noundef %9)
  %11 = zext i8 %10 to i32
  store i32 %11, ptr %7, align 4
  %12 = load i32, ptr %7, align 4
  %13 = icmp ne i32 %12, 0
  br i1 %13, label %14, label %20

14:                                               ; preds = %3
  %15 = load ptr, ptr %6, align 8
  %16 = load ptr, ptr %4, align 8
  %17 = load i32, ptr @hf_gryphon_bit_out_digital_data, align 4
  %18 = load i32, ptr @ett_gryphon_digital_data, align 4
  %19 = call ptr @proto_tree_add_bitmask(ptr noundef %15, ptr noundef %16, i32 noundef 1, i32 noundef %17, i32 noundef %18, ptr noundef @cmd_bits_out.digital_values, i32 noundef 0)
  br label %27

20:                                               ; preds = %3
  %21 = load ptr, ptr %6, align 8
  %22 = load i32, ptr @hf_gryphon_bit_out_digital_data, align 4
  %23 = load ptr, ptr %4, align 8
  %24 = load i32, ptr %5, align 4
  %25 = load i32, ptr %7, align 4
  %26 = call ptr (ptr, i32, ptr, i32, i32, i32, ptr, ...) @proto_tree_add_uint_format(ptr noundef %21, i32 noundef %22, ptr noundef %23, i32 noundef %24, i32 noundef 1, i32 noundef %25, ptr noundef @.str.1086)
  br label %27

27:                                               ; preds = %20, %14
  %28 = load i32, ptr %5, align 4
  %29 = add i32 %28, 1
  store i32 %29, ptr %5, align 4
  %30 = load i32, ptr %5, align 4
  call void @llvm.lifetime.end.p0(i64 4, ptr %7) #7
  ret i32 %30
}