; Function Attrs: null_pointer_is_valid sspstrong uwtable
define internal fastcc range(i32 13, 18) i32 @cmd_bits_out(ptr noundef %0, i32 noundef range(i32 12, 17) %1, ptr noundef %2) unnamed_addr #0 {
  %4 = tail call zeroext i8 @tvb_get_uint8(ptr noundef %0, i32 noundef %1)
  %.not = icmp eq i8 %4, 0
  %5 = load i32, ptr @hf_gryphon_bit_out_digital_data, align 4
  br i1 %.not, label %9, label %6

6:                                                ; preds = %3
  %7 = load i32, ptr @ett_gryphon_digital_data, align 4
  %8 = tail call ptr @proto_tree_add_bitmask(ptr noundef %2, ptr noundef %0, i32 noundef 1, i32 noundef %5, i32 noundef %7, ptr noundef nonnull @cmd_bits_out.digital_values, i32 noundef 0)
  br label %11

9:                                                ; preds = %3
  %10 = tail call ptr (ptr, i32, ptr, i32, i32, i32, ptr, ...) @proto_tree_add_uint_format(ptr noundef %2, i32 noundef %5, ptr noundef %0, i32 noundef %1, i32 noundef 1, i32 noundef 0, ptr noundef nonnull @.str.1086)
  br label %11

11:                                               ; preds = %9, %6
  %12 = add nuw nsw i32 %1, 1
  ret i32 %12
}